#include <math.h>
#include <stdio.h>
#include <stdlib.h>
#include <string.h>

main()
{
      int t,i,j,k;
      char c[100000];
      int a[26];
      scanf("%d\n",&t);
      for(i=0;i<t;i++)
      {
                   int a[26]={0};   
                   gets(c);
                   for(j=0;c[j]!='\0';j++) 
                   {
                                          switch(c[j]) 
                                          {
                                                 case'a':a[0]++;break;
                                                 case'b':a[1]++;break;
                                                 case'c':a[2]++;break;
                                                 case'd':a[3]++;break;
                                                 case'e':a[4]++;break;
                                                 case'f':a[5]++;break;
                                                 case'g':a[6]++;break;
                                                 case'h':a[7]++;break;
                                                 case'i':a[8]++;break;
                                                 case'j':a[9]++;break;
                                                 case'k':a[10]++;break;
                                                 case'l':a[11]++;break;
                                                 case'm':a[12]++;break;
                                                 case'n':a[13]++;break;
                                                 case'o':a[14]++;break;
                                                 case'p':a[15]++;break;
                                                 case'q':a[16]++;break;
                                                 case'r':a[17]++;break;
                                                 case's':a[18]++;break;
                                                 case't':a[19]++;break;
                                                 case'u':a[20]++;break;
                                                 case'v':a[21]++;break;
                                                 case'w':a[22]++;break;
                                                 case'x':a[23]++;break;
                                                 case'y':a[24]++;break;
                                                 case'z':a[25]++;break;
                                          }
                   }
                   for(j=0,k=0;c[j]!='\0';j++)
                   {
                                                                 if(a[c[j]-97]==1)
                                                                 {
                                                                                  printf("%c\n",c[j]);
                                                                                  k++;
                                                                                  break;
                                                                 }
                   }
                   if(k==0)printf("no\n");
                   
      }
}                                                 